target datalayout = "e-m:e-p270:32:32-p271:32:32-p272:64:64-i64:64-i128:128-f80:128-n8:16:32:64-S128"
target triple = "x86_64-pc-linux-gnu"

%struct.archive_write = type { %struct.archive, i32, i64, i64, ptr, i64, ptr, ptr, ptr, ptr, ptr, i32, i32, ptr, ptr, ptr, ptr, ptr, ptr, ptr, ptr, ptr, ptr, ptr, ptr, ptr, ptr }
%struct.archive = type { i32, i32, ptr, i32, ptr, i32, i32, ptr, %struct.archive_string, ptr, i32, i32, ptr, ptr, i64, i64, i64, i8, i64 }
%struct.archive_string = type { ptr, i64, i64 }
%struct.archive_write_filter = type { i64, ptr, ptr, ptr, ptr, ptr, ptr, ptr, ptr, ptr, ptr, i32, i32, i32, i32 }

@.str.6 = private unnamed_addr constant [20 x i8] c"archive_write_close\00", align 1

; Function Attrs: nounwind uwtable
define internal i32 @__archive_write_filters_close(ptr noundef %0) #0 {
  %2 = alloca ptr, align 8
  %3 = alloca ptr, align 8
  %4 = alloca i32, align 4
  %5 = alloca i32, align 4
  store ptr %0, ptr %2, align 8, !tbaa !4
  call void @llvm.lifetime.start.p0(i64 8, ptr %3) #9
  call void @llvm.lifetime.start.p0(i64 4, ptr %4) #9
  call void @llvm.lifetime.start.p0(i64 4, ptr %5) #9
  store i32 0, ptr %4, align 4, !tbaa !28
  %6 = load ptr, ptr %2, align 8, !tbaa !4
  %7 = getelementptr inbounds nuw %struct.archive_write, ptr %6, i32 0, i32 13
  %8 = load ptr, ptr %7, align 8, !tbaa !37
  store ptr %8, ptr %3, align 8, !tbaa !33
  br label %9

9:                                                ; preds = %48, %1
  %10 = load ptr, ptr %3, align 8, !tbaa !33
  %11 = icmp ne ptr %10, null
  br i1 %11, label %12, label %52

12:                                               ; preds = %9
  %13 = load ptr, ptr %3, align 8, !tbaa !33
  %14 = getelementptr inbounds nuw %struct.archive_write_filter, ptr %13, i32 0, i32 14
  %15 = load i32, ptr %14, align 4, !tbaa !36
  %16 = icmp eq i32 %15, 2
  br i1 %16, label %17, label %47

17:                                               ; preds = %12
  %18 = load ptr, ptr %3, align 8, !tbaa !33
  %19 = getelementptr inbounds nuw %struct.archive_write_filter, ptr %18, i32 0, i32 7
  %20 = load ptr, ptr %19, align 8, !tbaa !51
  %21 = icmp ne ptr %20, null
  br i1 %21, label %22, label %43

22:                                               ; preds = %17
  %23 = load ptr, ptr %3, align 8, !tbaa !33
  %24 = getelementptr inbounds nuw %struct.archive_write_filter, ptr %23, i32 0, i32 7
  %25 = load ptr, ptr %24, align 8, !tbaa !51
  %26 = load ptr, ptr %3, align 8, !tbaa !33
  %27 = call i32 %25(ptr noundef %26)
  store i32 %27, ptr %5, align 4, !tbaa !28
  %28 = load i32, ptr %5, align 4, !tbaa !28
  %29 = load i32, ptr %4, align 4, !tbaa !28
  %30 = icmp slt i32 %28, %29
  br i1 %30, label %31, label %33

31:                                               ; preds = %22
  %32 = load i32, ptr %5, align 4, !tbaa !28
  store i32 %32, ptr %4, align 4, !tbaa !28
  br label %33

33:                                               ; preds = %31, %22
  %34 = load i32, ptr %5, align 4, !tbaa !28
  %35 = icmp eq i32 %34, 0
  br i1 %35, label %36, label %39

36:                                               ; preds = %33
  %37 = load ptr, ptr %3, align 8, !tbaa !33
  %38 = getelementptr inbounds nuw %struct.archive_write_filter, ptr %37, i32 0, i32 14
  store i32 4, ptr %38, align 4, !tbaa !36
  br label %42

39:                                               ; preds = %33
  %40 = load ptr, ptr %3, align 8, !tbaa !33
  %41 = getelementptr inbounds nuw %struct.archive_write_filter, ptr %40, i32 0, i32 14
  store i32 32768, ptr %41, align 4, !tbaa !36
  br label %42

42:                                               ; preds = %39, %36
  br label %46

43:                                               ; preds = %17
  %44 = load ptr, ptr %3, align 8, !tbaa !33
  %45 = getelementptr inbounds nuw %struct.archive_write_filter, ptr %44, i32 0, i32 14
  store i32 4, ptr %45, align 4, !tbaa !36
  br label %46

46:                                               ; preds = %43, %42
  br label %47

47:                                               ; preds = %46, %12
  br label %48

48:                                               ; preds = %47
  %49 = load ptr, ptr %3, align 8, !tbaa !33
  %50 = getelementptr inbounds nuw %struct.archive_write_filter, ptr %49, i32 0, i32 2
  %51 = load ptr, ptr %50, align 8, !tbaa !39
  store ptr %51, ptr %3, align 8, !tbaa !33
  br label %9, !llvm.loop !69

52:                                               ; preds = %9
  %53 = load i32, ptr %4, align 4, !tbaa !28
  call void @llvm.lifetime.end.p0(i64 4, ptr %5) #9
  call void @llvm.lifetime.end.p0(i64 4, ptr %4) #9
  call void @llvm.lifetime.end.p0(i64 8, ptr %3) #9
  ret i32 %53
}

; Function Attrs: nounwind uwtable
define internal i32 @_archive_write_close(ptr noundef %0) #0 {
  %2 = alloca i32, align 4
  %3 = alloca ptr, align 8
  %4 = alloca ptr, align 8
  %5 = alloca i32, align 4
  %6 = alloca i32, align 4
  %7 = alloca i32, align 4
  %8 = alloca i32, align 4
  store ptr %0, ptr %3, align 8, !tbaa !26
  call void @llvm.lifetime.start.p0(i64 8, ptr %4) #9
  %9 = load ptr, ptr %3, align 8, !tbaa !26
  store ptr %9, ptr %4, align 8, !tbaa !4
  call void @llvm.lifetime.start.p0(i64 4, ptr %5) #9
  store i32 0, ptr %5, align 4, !tbaa !28
  call void @llvm.lifetime.start.p0(i64 4, ptr %6) #9
  store i32 0, ptr %6, align 4, !tbaa !28
  br label %10

10:                                               ; preds = %1
  call void @llvm.lifetime.start.p0(i64 4, ptr %7) #9
  %11 = load ptr, ptr %4, align 8, !tbaa !4
  %12 = getelementptr inbounds nuw %struct.archive_write, ptr %11, i32 0, i32 0
  %13 = call i32 @__archive_check_magic(ptr noundef %12, i32 noundef -1329217314, i32 noundef 65535, ptr noundef @.str.6)
  store i32 %13, ptr %7, align 4, !tbaa !28
  %14 = load i32, ptr %7, align 4, !tbaa !28
  %15 = icmp eq i32 %14, -30
  br i1 %15, label %16, label %17

16:                                               ; preds = %10
  store i32 -30, ptr %2, align 4
  store i32 1, ptr %8, align 4
  br label %18

17:                                               ; preds = %10
  store i32 0, ptr %8, align 4
  br label %18

18:                                               ; preds = %17, %16
  call void @llvm.lifetime.end.p0(i64 4, ptr %7) #9
  %19 = load i32, ptr %8, align 4
  switch i32 %19, label %91 [
    i32 0, label %20
  ]

20:                                               ; preds = %18
  br label %21

21:                                               ; preds = %20
  br label %22

22:                                               ; preds = %21
  %23 = load ptr, ptr %4, align 8, !tbaa !4
  %24 = getelementptr inbounds nuw %struct.archive_write, ptr %23, i32 0, i32 0
  %25 = getelementptr inbounds nuw %struct.archive, ptr %24, i32 0, i32 1
  %26 = load i32, ptr %25, align 4, !tbaa !19
  %27 = icmp eq i32 %26, 1
  br i1 %27, label %34, label %28

28:                                               ; preds = %22
  %29 = load ptr, ptr %4, align 8, !tbaa !4
  %30 = getelementptr inbounds nuw %struct.archive_write, ptr %29, i32 0, i32 0
  %31 = getelementptr inbounds nuw %struct.archive, ptr %30, i32 0, i32 1
  %32 = load i32, ptr %31, align 4, !tbaa !19
  %33 = icmp eq i32 %32, 32
  br i1 %33, label %34, label %35

34:                                               ; preds = %28, %22
  store i32 0, ptr %2, align 4
  store i32 1, ptr %8, align 4
  br label %91

35:                                               ; preds = %28
  %36 = load ptr, ptr %4, align 8, !tbaa !4
  %37 = getelementptr inbounds nuw %struct.archive_write, ptr %36, i32 0, i32 0
  call void @archive_clear_error(ptr noundef %37)
  %38 = load ptr, ptr %4, align 8, !tbaa !4
  %39 = getelementptr inbounds nuw %struct.archive_write, ptr %38, i32 0, i32 0
  %40 = getelementptr inbounds nuw %struct.archive, ptr %39, i32 0, i32 1
  %41 = load i32, ptr %40, align 4, !tbaa !19
  %42 = icmp eq i32 %41, 4
  br i1 %42, label %43, label %54

43:                                               ; preds = %35
  %44 = load ptr, ptr %4, align 8, !tbaa !4
  %45 = getelementptr inbounds nuw %struct.archive_write, ptr %44, i32 0, i32 19
  %46 = load ptr, ptr %45, align 8, !tbaa !71
  %47 = icmp ne ptr %46, null
  br i1 %47, label %48, label %54

48:                                               ; preds = %43
  %49 = load ptr, ptr %4, align 8, !tbaa !4
  %50 = getelementptr inbounds nuw %struct.archive_write, ptr %49, i32 0, i32 19
  %51 = load ptr, ptr %50, align 8, !tbaa !71
  %52 = load ptr, ptr %4, align 8, !tbaa !4
  %53 = call i32 %51(ptr noundef %52)
  store i32 %53, ptr %5, align 4, !tbaa !28
  br label %54

54:                                               ; preds = %48, %43, %35
  %55 = load ptr, ptr %4, align 8, !tbaa !4
  %56 = getelementptr inbounds nuw %struct.archive_write, ptr %55, i32 0, i32 22
  %57 = load ptr, ptr %56, align 8, !tbaa !72
  %58 = icmp ne ptr %57, null
  br i1 %58, label %59, label %71

59:                                               ; preds = %54
  %60 = load ptr, ptr %4, align 8, !tbaa !4
  %61 = getelementptr inbounds nuw %struct.archive_write, ptr %60, i32 0, i32 22
  %62 = load ptr, ptr %61, align 8, !tbaa !72
  %63 = load ptr, ptr %4, align 8, !tbaa !4
  %64 = call i32 %62(ptr noundef %63)
  store i32 %64, ptr %6, align 4, !tbaa !28
  %65 = load i32, ptr %6, align 4, !tbaa !28
  %66 = load i32, ptr %5, align 4, !tbaa !28
  %67 = icmp slt i32 %65, %66
  br i1 %67, label %68, label %70

68:                                               ; preds = %59
  %69 = load i32, ptr %6, align 4, !tbaa !28
  store i32 %69, ptr %5, align 4, !tbaa !28
  br label %70

70:                                               ; preds = %68, %59
  br label %71

71:                                               ; preds = %70, %54
  %72 = load ptr, ptr %4, align 8, !tbaa !4
  %73 = call i32 @__archive_write_filters_close(ptr noundef %72)
  store i32 %73, ptr %6, align 4, !tbaa !28
  %74 = load i32, ptr %6, align 4, !tbaa !28
  %75 = load i32, ptr %5, align 4, !tbaa !28
  %76 = icmp slt i32 %74, %75
  br i1 %76, label %77, label %79

77:                                               ; preds = %71
  %78 = load i32, ptr %6, align 4, !tbaa !28
  store i32 %78, ptr %5, align 4, !tbaa !28
  br label %79

79:                                               ; preds = %77, %71
  %80 = load ptr, ptr %4, align 8, !tbaa !4
  %81 = getelementptr inbounds nuw %struct.archive_write, ptr %80, i32 0, i32 0
  %82 = getelementptr inbounds nuw %struct.archive, ptr %81, i32 0, i32 1
  %83 = load i32, ptr %82, align 4, !tbaa !19
  %84 = icmp ne i32 %83, 32768
  br i1 %84, label %85, label %89

85:                                               ; preds = %79
  %86 = load ptr, ptr %4, align 8, !tbaa !4
  %87 = getelementptr inbounds nuw %struct.archive_write, ptr %86, i32 0, i32 0
  %88 = getelementptr inbounds nuw %struct.archive, ptr %87, i32 0, i32 1
  store i32 32, ptr %88, align 4, !tbaa !19
  br label %89

89:                                               ; preds = %85, %79
  %90 = load i32, ptr %5, align 4, !tbaa !28
  store i32 %90, ptr %2, align 4
  store i32 1, ptr %8, align 4
  br label %91

91:                                               ; preds = %89, %34, %18
  call void @llvm.lifetime.end.p0(i64 4, ptr %6) #9
  call void @llvm.lifetime.end.p0(i64 4, ptr %5) #9
  call void @llvm.lifetime.end.p0(i64 8, ptr %4) #9
  %92 = load i32, ptr %2, align 4
  ret i32 %92
}