; Function Attrs: nounwind uwtable
define internal range(i32 -2147483648, 1) i32 @_archive_write_close(ptr noundef %0) #3 {
  %2 = tail call i32 @__archive_check_magic(ptr noundef %0, i32 noundef -1329217314, i32 noundef 65535, ptr noundef nonnull @.str.6) #13
  %.not = icmp eq i32 %2, -30
  br i1 %.not, label %34, label %3

3:                                                ; preds = %1
  %4 = getelementptr inbounds nuw i8, ptr %0, i64 4
  %5 = load i32, ptr %4, align 4, !tbaa !17
  switch i32 %5, label %6 [
    i32 1, label %34
    i32 32, label %34
  ]

6:                                                ; preds = %3
  tail call void @archive_clear_error(ptr noundef nonnull %0) #13
  %7 = load i32, ptr %4, align 4, !tbaa !17
  %8 = icmp eq i32 %7, 4
  br i1 %8, label %9, label %14

9:                                                ; preds = %6
  %10 = getelementptr inbounds nuw i8, ptr %0, i64 280
  %11 = load ptr, ptr %10, align 8, !tbaa !61
  %.not32 = icmp eq ptr %11, null
  br i1 %.not32, label %14, label %12

12:                                               ; preds = %9
  %13 = tail call i32 %11(ptr noundef nonnull %0) #13
  br label %14

14:                                               ; preds = %12, %9, %6
  %.025 = phi i32 [ %13, %12 ], [ 0, %9 ], [ 0, %6 ]
  %15 = getelementptr inbounds nuw i8, ptr %0, i64 304
  %16 = load ptr, ptr %15, align 8, !tbaa !62
  %.not33 = icmp eq ptr %16, null
  br i1 %.not33, label %19, label %17

17:                                               ; preds = %14
  %18 = tail call i32 %16(ptr noundef nonnull %0) #13
  %spec.select = tail call i32 @llvm.smin.i32(i32 %18, i32 %.025)
  br label %19

19:                                               ; preds = %17, %14
  %.126 = phi i32 [ %.025, %14 ], [ %spec.select, %17 ]
  %20 = getelementptr inbounds nuw i8, ptr %0, i64 232
  %.018.i = load ptr, ptr %20, align 8, !tbaa !43
  %.not19.i = icmp eq ptr %.018.i, null
  br i1 %.not19.i, label %__archive_write_filters_close.exit, label %.lr.ph.i

.lr.ph.i:                                         ; preds = %19, %30
  %.021.i = phi ptr [ %.0.i, %30 ], [ %.018.i, %19 ]
  %.01420.i = phi i32 [ %.2.i, %30 ], [ 0, %19 ]
  %21 = getelementptr inbounds nuw i8, ptr %.021.i, i64 100
  %22 = load i32, ptr %21, align 4, !tbaa !29
  %23 = icmp eq i32 %22, 2
  br i1 %23, label %24, label %30

24:                                               ; preds = %.lr.ph.i
  %25 = getelementptr inbounds nuw i8, ptr %.021.i, i64 56
  %26 = load ptr, ptr %25, align 8, !tbaa !41
  %.not17.i = icmp eq ptr %26, null
  br i1 %.not17.i, label %.sink.split.i, label %27

27:                                               ; preds = %24
  %28 = tail call i32 %26(ptr noundef nonnull %.021.i) #13
  %spec.select.i = tail call i32 @llvm.smin.i32(i32 %28, i32 %.01420.i)
  %29 = icmp eq i32 %28, 0
  %..i = select i1 %29, i32 4, i32 32768
  br label %.sink.split.i

.sink.split.i:                                    ; preds = %27, %24
  %.sink.i = phi i32 [ %..i, %27 ], [ 4, %24 ]
  %.2.ph.i = phi i32 [ %spec.select.i, %27 ], [ %.01420.i, %24 ]
  store i32 %.sink.i, ptr %21, align 4, !tbaa !29
  br label %30

30:                                               ; preds = %.sink.split.i, %.lr.ph.i
  %.2.i = phi i32 [ %.01420.i, %.lr.ph.i ], [ %.2.ph.i, %.sink.split.i ]
  %31 = getelementptr inbounds nuw i8, ptr %.021.i, i64 16
  %.0.i = load ptr, ptr %31, align 8, !tbaa !43
  %.not.i = icmp eq ptr %.0.i, null
  br i1 %.not.i, label %__archive_write_filters_close.exit, label %.lr.ph.i, !llvm.loop !44

__archive_write_filters_close.exit:               ; preds = %30, %19
  %.014.lcssa.i = phi i32 [ 0, %19 ], [ %.2.i, %30 ]
  %spec.select35 = tail call i32 @llvm.smin.i32(i32 %.014.lcssa.i, i32 %.126)
  %32 = load i32, ptr %4, align 4, !tbaa !17
  %.not34 = icmp eq i32 %32, 32768
  br i1 %.not34, label %34, label %33

33:                                               ; preds = %__archive_write_filters_close.exit
  store i32 32, ptr %4, align 4, !tbaa !17
  br label %34

34:                                               ; preds = %__archive_write_filters_close.exit, %33, %3, %3, %1
  %.1 = phi i32 [ -30, %1 ], [ 0, %3 ], [ 0, %3 ], [ %spec.select35, %33 ], [ %spec.select35, %__archive_write_filters_close.exit ]
  ret i32 %.1
}